; ModuleID = '408.c'
source_filename = "408.c"
target datalayout = "e-m:e-p270:32:32-p271:32:32-p272:64:64-i64:64-f80:128-n8:16:32:64-S128"
target triple = "x86_64-pc-linux-gnu"

%struct.student = type { [20 x i8], [20 x i8], [20 x i8], i8, i32, float, %struct.student*, %struct.student* }

@.str = private unnamed_addr constant [13 x i8] c"%s%s%s%d%s%s\00", align 1
@.str.1 = private unnamed_addr constant [3 x i8] c"%s\00", align 1
@.str.2 = private unnamed_addr constant [4 x i8] c"end\00", align 1
@.str.3 = private unnamed_addr constant [15 x i8] c"%s %c %d %f %s\00", align 1
@.str.4 = private unnamed_addr constant [18 x i8] c"%s %s %c %d %g %s\00", align 1
@.str.5 = private unnamed_addr constant [2 x i8] c"\0A\00", align 1

; Function Attrs: noinline nounwind uwtable
define dso_local %struct.student* @create() #0 {
  %1 = alloca %struct.student*, align 8
  %2 = alloca %struct.student*, align 8
  %3 = alloca %struct.student*, align 8
  %4 = call noalias i8* @malloc(i64 100) #4
  %5 = bitcast i8* %4 to %struct.student*
  store %struct.student* %5, %struct.student** %2, align 8
  %6 = load %struct.student*, %struct.student** %2, align 8
  %7 = getelementptr inbounds %struct.student, %struct.student* %6, i32 0, i32 0
  %8 = getelementptr inbounds [20 x i8], [20 x i8]* %7, i64 0, i64 0
  %9 = load %struct.student*, %struct.student** %2, align 8
  %10 = getelementptr inbounds %struct.student, %struct.student* %9, i32 0, i32 1
  %11 = getelementptr inbounds [20 x i8], [20 x i8]* %10, i64 0, i64 0
  %12 = load %struct.student*, %struct.student** %2, align 8
  %13 = getelementptr inbounds %struct.student, %struct.student* %12, i32 0, i32 3
  %14 = load %struct.student*, %struct.student** %2, align 8
  %15 = getelementptr inbounds %struct.student, %struct.student* %14, i32 0, i32 4
  %16 = load %struct.student*, %struct.student** %2, align 8
  %17 = getelementptr inbounds %struct.student, %struct.student* %16, i32 0, i32 5
  %18 = load %struct.student*, %struct.student** %2, align 8
  %19 = getelementptr inbounds %struct.student, %struct.student* %18, i32 0, i32 2
  %20 = getelementptr inbounds [20 x i8], [20 x i8]* %19, i64 0, i64 0
  %21 = call i32 (i8*, ...) @__isoc99_scanf(i8* getelementptr inbounds ([13 x i8], [13 x i8]* @.str, i64 0, i64 0), i8* %8, i8* %11, i8* %13, i32* %15, float* %17, i8* %20)
  %22 = load %struct.student*, %struct.student** %2, align 8
  store %struct.student* %22, %struct.student** %1, align 8
  %23 = load %struct.student*, %struct.student** %2, align 8
  %24 = getelementptr inbounds %struct.student, %struct.student* %23, i32 0, i32 7
  store %struct.student* null, %struct.student** %24, align 8
  %25 = load %struct.student*, %struct.student** %2, align 8
  store %struct.student* %25, %struct.student** %3, align 8
  br label %26

26:                                               ; preds = %0, %41
  %27 = call noalias i8* @malloc(i64 100) #4
  %28 = bitcast i8* %27 to %struct.student*
  store %struct.student* %28, %struct.student** %2, align 8
  %29 = load %struct.student*, %struct.student** %2, align 8
  %30 = getelementptr inbounds %struct.student, %struct.student* %29, i32 0, i32 0
  %31 = getelementptr inbounds [20 x i8], [20 x i8]* %30, i64 0, i64 0
  %32 = call i32 (i8*, ...) @__isoc99_scanf(i8* getelementptr inbounds ([3 x i8], [3 x i8]* @.str.1, i64 0, i64 0), i8* %31)
  %33 = load %struct.student*, %struct.student** %2, align 8
  %34 = getelementptr inbounds %struct.student, %struct.student* %33, i32 0, i32 0
  %35 = getelementptr inbounds [20 x i8], [20 x i8]* %34, i64 0, i64 0
  %36 = call i32 @strcmp(i8* %35, i8* getelementptr inbounds ([4 x i8], [4 x i8]* @.str.2, i64 0, i64 0)) #5
  %37 = icmp eq i32 %36, 0
  br i1 %37, label %38, label %41

38:                                               ; preds = %26
  %39 = load %struct.student*, %struct.student** %2, align 8
  %40 = bitcast %struct.student* %39 to i8*
  call void @free(i8* %40) #4
  br label %62

41:                                               ; preds = %26
  %42 = load %struct.student*, %struct.student** %2, align 8
  %43 = getelementptr inbounds %struct.student, %struct.student* %42, i32 0, i32 1
  %44 = getelementptr inbounds [20 x i8], [20 x i8]* %43, i64 0, i64 0
  %45 = load %struct.student*, %struct.student** %2, align 8
  %46 = getelementptr inbounds %struct.student, %struct.student* %45, i32 0, i32 3
  %47 = load %struct.student*, %struct.student** %2, align 8
  %48 = getelementptr inbounds %struct.student, %struct.student* %47, i32 0, i32 4
  %49 = load %struct.student*, %struct.student** %2, align 8
  %50 = getelementptr inbounds %struct.student, %struct.student* %49, i32 0, i32 5
  %51 = load %struct.student*, %struct.student** %2, align 8
  %52 = getelementptr inbounds %struct.student, %struct.student* %51, i32 0, i32 2
  %53 = getelementptr inbounds [20 x i8], [20 x i8]* %52, i64 0, i64 0
  %54 = call i32 (i8*, ...) @__isoc99_scanf(i8* getelementptr inbounds ([15 x i8], [15 x i8]* @.str.3, i64 0, i64 0), i8* %44, i8* %46, i32* %48, float* %50, i8* %53)
  %55 = load %struct.student*, %struct.student** %2, align 8
  %56 = load %struct.student*, %struct.student** %3, align 8
  %57 = getelementptr inbounds %struct.student, %struct.student* %56, i32 0, i32 6
  store %struct.student* %55, %struct.student** %57, align 8
  %58 = load %struct.student*, %struct.student** %3, align 8
  %59 = load %struct.student*, %struct.student** %2, align 8
  %60 = getelementptr inbounds %struct.student, %struct.student* %59, i32 0, i32 7
  store %struct.student* %58, %struct.student** %60, align 8
  %61 = load %struct.student*, %struct.student** %2, align 8
  store %struct.student* %61, %struct.student** %3, align 8
  br label %26

62:                                               ; preds = %38
  %63 = load %struct.student*, %struct.student** %3, align 8
  %64 = getelementptr inbounds %struct.student, %struct.student* %63, i32 0, i32 6
  store %struct.student* null, %struct.student** %64, align 8
  %65 = load %struct.student*, %struct.student** %3, align 8
  ret %struct.student* %65
}

; Function Attrs: nounwind
declare dso_local noalias i8* @malloc(i64) #1

declare dso_local i32 @__isoc99_scanf(i8*, ...) #2

; Function Attrs: nounwind readonly
declare dso_local i32 @strcmp(i8*, i8*) #3

; Function Attrs: nounwind
declare dso_local void @free(i8*) #1

; Function Attrs: noinline nounwind uwtable
define dso_local i32 @main() #0 {
  %1 = alloca i32, align 4
  %2 = alloca %struct.student*, align 8
  %3 = alloca %struct.student*, align 8
  store i32 0, i32* %1, align 4
  %4 = call %struct.student* @create()
  store %struct.student* %4, %struct.student** %2, align 8
  %5 = load %struct.student*, %struct.student** %2, align 8
  store %struct.student* %5, %struct.student** %3, align 8
  br label %6

6:                                                ; preds = %9, %0
  %7 = load %struct.student*, %struct.student** %3, align 8
  %8 = icmp ne %struct.student* %7, null
  br i1 %8, label %9, label %35

9:                                                ; preds = %6
  %10 = load %struct.student*, %struct.student** %3, align 8
  %11 = getelementptr inbounds %struct.student, %struct.student* %10, i32 0, i32 0
  %12 = getelementptr inbounds [20 x i8], [20 x i8]* %11, i64 0, i64 0
  %13 = load %struct.student*, %struct.student** %3, align 8
  %14 = getelementptr inbounds %struct.student, %struct.student* %13, i32 0, i32 1
  %15 = getelementptr inbounds [20 x i8], [20 x i8]* %14, i64 0, i64 0
  %16 = load %struct.student*, %struct.student** %3, align 8
  %17 = getelementptr inbounds %struct.student, %struct.student* %16, i32 0, i32 3
  %18 = load i8, i8* %17, align 4
  %19 = sext i8 %18 to i32
  %20 = load %struct.student*, %struct.student** %3, align 8
  %21 = getelementptr inbounds %struct.student, %struct.student* %20, i32 0, i32 4
  %22 = load i32, i32* %21, align 8
  %23 = load %struct.student*, %struct.student** %3, align 8
  %24 = getelementptr inbounds %struct.student, %struct.student* %23, i32 0, i32 5
  %25 = load float, float* %24, align 4
  %26 = fpext float %25 to double
  %27 = load %struct.student*, %struct.student** %3, align 8
  %28 = getelementptr inbounds %struct.student, %struct.student* %27, i32 0, i32 2
  %29 = getelementptr inbounds [20 x i8], [20 x i8]* %28, i64 0, i64 0
  %30 = call i32 (i8*, ...) @printf(i8* getelementptr inbounds ([18 x i8], [18 x i8]* @.str.4, i64 0, i64 0), i8* %12, i8* %15, i32 %19, i32 %22, double %26, i8* %29)
  %31 = call i32 (i8*, ...) @printf(i8* getelementptr inbounds ([2 x i8], [2 x i8]* @.str.5, i64 0, i64 0))
  %32 = load %struct.student*, %struct.student** %3, align 8
  %33 = getelementptr inbounds %struct.student, %struct.student* %32, i32 0, i32 7
  %34 = load %struct.student*, %struct.student** %33, align 8
  store %struct.student* %34, %struct.student** %3, align 8
  br label %6

35:                                               ; preds = %6
  ret i32 0
}

declare dso_local i32 @printf(i8*, ...) #2


!llvm.module.flags = !{!0}
!llvm.ident = !{!1}

!0 = !{i32 1, !"wchar_size", i32 4}
!1 = !{!"clang version 10.0.0-4ubuntu1 "}
