; ModuleID = 'source-C-CXX/30/408.c'
source_filename = "source-C-CXX/30/408.c"
target datalayout = "e-m:e-p270:32:32-p271:32:32-p272:64:64-i64:64-f80:128-n8:16:32:64-S128"
target triple = "x86_64-pc-linux-gnu"

%struct.student = type { [20 x i8], [20 x i8], [20 x i8], i8, i32, float, %struct.student*, %struct.student* }

@.str = private unnamed_addr constant [13 x i8] c"%s%s%s%d%s%s\00", align 1
@.str.1 = private unnamed_addr constant [3 x i8] c"%s\00", align 1
@.str.2 = private unnamed_addr constant [4 x i8] c"end\00", align 1
@.str.3 = private unnamed_addr constant [15 x i8] c"%s %c %d %f %s\00", align 1
@.str.4 = private unnamed_addr constant [18 x i8] c"%s %s %c %d %g %s\00", align 1

; Function Attrs: nounwind sspstrong uwtable
define dso_local %struct.student* @create() local_unnamed_addr #0 {
  %1 = tail call noalias align 16 dereferenceable_or_null(100) i8* @malloc(i64 100) #6
  %2 = bitcast i8* %1 to %struct.student*
  %3 = getelementptr inbounds %struct.student, %struct.student* %2, i64 0, i32 0, i64 0
  %4 = getelementptr inbounds %struct.student, %struct.student* %2, i64 0, i32 1, i64 0
  %5 = getelementptr inbounds %struct.student, %struct.student* %2, i64 0, i32 3
  %6 = getelementptr inbounds %struct.student, %struct.student* %2, i64 0, i32 4
  %7 = getelementptr inbounds %struct.student, %struct.student* %2, i64 0, i32 5
  %8 = getelementptr inbounds %struct.student, %struct.student* %2, i64 0, i32 2, i64 0
  %9 = tail call i32 (i8*, ...) @__isoc99_scanf(i8* getelementptr inbounds ([13 x i8], [13 x i8]* @.str, i64 0, i64 0), i8* %3, i8* nonnull %4, i8* nonnull %5, i32* nonnull %6, float* nonnull %7, i8* nonnull %8)
  %10 = getelementptr inbounds %struct.student, %struct.student* %2, i64 0, i32 7
  store %struct.student* null, %struct.student** %10, align 16, !tbaa !5
  %11 = tail call noalias align 16 dereferenceable_or_null(100) i8* @malloc(i64 100) #6
  %12 = bitcast i8* %11 to %struct.student*
  %13 = getelementptr inbounds %struct.student, %struct.student* %12, i64 0, i32 0, i64 0
  %14 = tail call i32 (i8*, ...) @__isoc99_scanf(i8* getelementptr inbounds ([3 x i8], [3 x i8]* @.str.1, i64 0, i64 0), i8* %13)
  %15 = tail call i32 @strcmp(i8* noundef nonnull dereferenceable(1) %13, i8* noundef nonnull dereferenceable(4) getelementptr inbounds ([4 x i8], [4 x i8]* @.str.2, i64 0, i64 0)) #7
  %16 = icmp eq i32 %15, 0
  br i1 %16, label %17, label %21

17:                                               ; preds = %21, %0
  %18 = phi %struct.student* [ %2, %0 ], [ %22, %21 ]
  %19 = phi i8* [ %11, %0 ], [ %34, %21 ]
  tail call void @free(i8* %19) #6
  %20 = getelementptr inbounds %struct.student, %struct.student* %18, i64 0, i32 6
  store %struct.student* null, %struct.student** %20, align 8, !tbaa !12
  ret %struct.student* %18

21:                                               ; preds = %0, %21
  %22 = phi %struct.student* [ %35, %21 ], [ %12, %0 ]
  %23 = phi i8* [ %34, %21 ], [ %11, %0 ]
  %24 = phi %struct.student* [ %22, %21 ], [ %2, %0 ]
  %25 = getelementptr inbounds %struct.student, %struct.student* %22, i64 0, i32 1, i64 0
  %26 = getelementptr inbounds %struct.student, %struct.student* %22, i64 0, i32 3
  %27 = getelementptr inbounds %struct.student, %struct.student* %22, i64 0, i32 4
  %28 = getelementptr inbounds %struct.student, %struct.student* %22, i64 0, i32 5
  %29 = getelementptr inbounds %struct.student, %struct.student* %22, i64 0, i32 2, i64 0
  %30 = tail call i32 (i8*, ...) @__isoc99_scanf(i8* getelementptr inbounds ([15 x i8], [15 x i8]* @.str.3, i64 0, i64 0), i8* nonnull %25, i8* nonnull %26, i32* nonnull %27, float* nonnull %28, i8* nonnull %29)
  %31 = getelementptr inbounds %struct.student, %struct.student* %24, i64 0, i32 6
  %32 = bitcast %struct.student** %31 to i8**
  store i8* %23, i8** %32, align 8, !tbaa !12
  %33 = getelementptr inbounds %struct.student, %struct.student* %22, i64 0, i32 7
  store %struct.student* %24, %struct.student** %33, align 16, !tbaa !5
  %34 = tail call noalias align 16 dereferenceable_or_null(100) i8* @malloc(i64 100) #6
  %35 = bitcast i8* %34 to %struct.student*
  %36 = getelementptr inbounds %struct.student, %struct.student* %35, i64 0, i32 0, i64 0
  %37 = tail call i32 (i8*, ...) @__isoc99_scanf(i8* getelementptr inbounds ([3 x i8], [3 x i8]* @.str.1, i64 0, i64 0), i8* %36)
  %38 = tail call i32 @strcmp(i8* noundef nonnull dereferenceable(1) %36, i8* noundef nonnull dereferenceable(4) getelementptr inbounds ([4 x i8], [4 x i8]* @.str.2, i64 0, i64 0)) #7
  %39 = icmp eq i32 %38, 0
  br i1 %39, label %17, label %21
}

; Function Attrs: inaccessiblememonly mustprogress nofree nounwind willreturn
declare noalias noundef align 16 i8* @malloc(i64 noundef) local_unnamed_addr #1

; Function Attrs: nofree nounwind
declare noundef i32 @__isoc99_scanf(i8* nocapture noundef readonly, ...) local_unnamed_addr #2

; Function Attrs: argmemonly mustprogress nofree nounwind readonly willreturn
declare i32 @strcmp(i8* nocapture, i8* nocapture) local_unnamed_addr #3

; Function Attrs: inaccessiblemem_or_argmemonly mustprogress nounwind willreturn
declare void @free(i8* nocapture noundef) local_unnamed_addr #4

; Function Attrs: nounwind sspstrong uwtable
define dso_local i32 @main() local_unnamed_addr #0 {
  %1 = tail call %struct.student* @create()
  %2 = icmp eq %struct.student* %1, null
  br i1 %2, label %21, label %3

3:                                                ; preds = %0, %3
  %4 = phi %struct.student* [ %19, %3 ], [ %1, %0 ]
  %5 = getelementptr inbounds %struct.student, %struct.student* %4, i64 0, i32 0, i64 0
  %6 = getelementptr inbounds %struct.student, %struct.student* %4, i64 0, i32 1, i64 0
  %7 = getelementptr inbounds %struct.student, %struct.student* %4, i64 0, i32 3
  %8 = load i8, i8* %7, align 4, !tbaa !13
  %9 = sext i8 %8 to i32
  %10 = getelementptr inbounds %struct.student, %struct.student* %4, i64 0, i32 4
  %11 = load i32, i32* %10, align 8, !tbaa !14
  %12 = getelementptr inbounds %struct.student, %struct.student* %4, i64 0, i32 5
  %13 = load float, float* %12, align 4, !tbaa !15
  %14 = fpext float %13 to double
  %15 = getelementptr inbounds %struct.student, %struct.student* %4, i64 0, i32 2, i64 0
  %16 = tail call i32 (i8*, ...) @printf(i8* nonnull dereferenceable(1) getelementptr inbounds ([18 x i8], [18 x i8]* @.str.4, i64 0, i64 0), i8* nonnull %5, i8* nonnull %6, i32 %9, i32 %11, double %14, i8* nonnull %15)
  %17 = tail call i32 @putchar(i32 10)
  %18 = getelementptr inbounds %struct.student, %struct.student* %4, i64 0, i32 7
  %19 = load %struct.student*, %struct.student** %18, align 8, !tbaa !5
  %20 = icmp eq %struct.student* %19, null
  br i1 %20, label %21, label %3, !llvm.loop !16

21:                                               ; preds = %3, %0
  ret i32 0
}

; Function Attrs: nofree nounwind
declare noundef i32 @printf(i8* nocapture noundef readonly, ...) local_unnamed_addr #2

; Function Attrs: nofree nounwind
declare noundef i32 @putchar(i32 noundef) local_unnamed_addr #5


!llvm.module.flags = !{!0, !1, !2, !3}
!llvm.ident = !{!4}

!0 = !{i32 1, !"wchar_size", i32 4}
!1 = !{i32 7, !"PIC Level", i32 2}
!2 = !{i32 7, !"PIE Level", i32 2}
!3 = !{i32 7, !"uwtable", i32 1}
!4 = !{!"clang version 13.0.0"}
!5 = !{!6, !11, i64 80}
!6 = !{!"student", !7, i64 0, !7, i64 20, !7, i64 40, !7, i64 60, !9, i64 64, !10, i64 68, !11, i64 72, !11, i64 80}
!7 = !{!"omnipotent char", !8, i64 0}
!8 = !{!"Simple C/C++ TBAA"}
!9 = !{!"int", !7, i64 0}
!10 = !{!"float", !7, i64 0}
!11 = !{!"any pointer", !7, i64 0}
!12 = !{!6, !11, i64 72}
!13 = !{!6, !7, i64 60}
!14 = !{!6, !9, i64 64}
!15 = !{!6, !10, i64 68}
!16 = distinct !{!16, !17}
!17 = !{!"llvm.loop.mustprogress"}
